(lp0
(lp1
(lp2
F-30.714687603781908
aF21.44295380846997
aF1037.380893294771
aa(lp3
F-30.715880701725332
aF21.442912675711245
aF1038.0657134779672
aa(lp4
F-30.71440192167751
aF21.44422663307413
aF1037.742417716505
aa(lp5
F-30.715671904400562
aF21.44480849875927
aF1038.797728795109
aa(lp6
F-30.7142308013459
aF21.444765866726442
aF1037.7638086766615
aa(lp7
F-30.714376788068208
aF21.445350472040438
aF1038.0627090627677
aa(lp8
F-30.714603990008985
aF21.446360609715104
aF1038.7355752198653
aa(lp9
F-30.713632950012126
aF21.446818577325207
aF1038.1565974272198
aa(lp10
F-30.71303188339193
aF21.446087639707734
aF1037.3492544930114
aa(lp11
F-30.712731779615872
aF21.446896750989495
aF1037.439221954749
aaacnumpy.core.multiarray
_reconstruct
p12
(cnumpy
ndarray
p13
(I0
tp14
S'b'
p15
tp16
Rp17
(I1
(I2
tp18
cnumpy
dtype
p19
(S'f8'
p20
I0
I1
tp21
Rp22
(I3
S'<'
p23
NNNI-1
I-1
I0
tp24
bI00
S'\x00\x00\x00\x00\x00 l@\x00\x00\x00\x00\x00\x00(@'
p25
tp26
bacdatetime
datetime
p27
(S'\x07\xe2\x07\x0c\x0b\x1d:\x04D\x90'
p28
tp29
Rp30
a.